target datalayout = "e-m:e-p270:32:32-p271:32:32-p272:64:64-i64:64-i128:128-f80:128-n8:16:32:64-S128"
target triple = "x86_64-unknown-linux-gnu"

%struct.SCSISense = type { i8, i8, i8 }
%struct.VirtIOSCSICommon = type { %struct.VirtIODevice, %struct.VirtIOSCSIConf, i32, i32, ptr, ptr, ptr }
%struct.VirtIODevice = type { %struct.DeviceState, ptr, i8, i8, i16, i64, i64, i64, i64, ptr, i16, i32, i32, ptr, %struct.MemoryListener, i16, i8, i8, i8, i8, i8, i8, i8, i8, i8, ptr, ptr, i8, i8, ptr, ptr, %union.anon.1, %struct.EventNotifier, i8 }
%struct.DeviceState = type { %struct.Object, ptr, ptr, i8, i8, i64, ptr, i32, i8, ptr, %struct.NamedGPIOListHead, %struct.NamedClockListHead, %struct.BusStateHead, i32, i32, i32, %struct.ResettableState, ptr, %struct.MemReentrancyGuard }
%struct.Object = type { ptr, ptr, ptr, i32, ptr }
%struct.NamedGPIOListHead = type { ptr }
%struct.NamedClockListHead = type { ptr }
%struct.BusStateHead = type { ptr }
%struct.ResettableState = type { i32, i8, i8 }
%struct.MemReentrancyGuard = type { i8 }
%struct.MemoryListener = type { ptr, ptr, ptr, ptr, ptr, ptr, ptr, ptr, ptr, ptr, ptr, ptr, ptr, ptr, ptr, ptr, ptr, i32, ptr, ptr, %union.anon, %union.anon.0 }
%union.anon = type { %struct.QTailQLink }
%struct.QTailQLink = type { ptr, ptr }
%union.anon.0 = type { %struct.QTailQLink }
%union.anon.1 = type { %struct.QTailQLink }
%struct.EventNotifier = type { i32, i32, i8 }
%struct.VirtIOSCSIConf = type { i32, i32, i8, i32, i32, ptr, ptr, %struct.CharBackend, i32, ptr }
%struct.CharBackend = type { ptr, ptr, ptr, ptr, ptr, ptr, i32, i32 }
%struct.VirtIOSCSI = type { %struct.VirtIOSCSICommon, %struct.SCSIBus, i32, i8, ptr, %union.anon.3, ptr, i8, i8, i8, i8, i32 }
%struct.SCSIBus = type { %struct.BusState, i32, %struct.SCSISense, ptr, i32 }
%struct.BusState = type { %struct.Object, ptr, ptr, ptr, i32, i8, i8, i32, %union.BusChildHead, %struct.BusStateEntry, %struct.ResettableState }
%union.BusChildHead = type { %struct.QTailQLink }
%struct.BusStateEntry = type { ptr, ptr }
%union.anon.3 = type { %struct.QTailQLink }
%struct.SCSIDevice = type { %struct.DeviceState, ptr, ptr, i32, %struct.BlockConf, %struct.SCSISense, i8, [252 x i8], i32, %union.anon.9, i32, i32, i32, i32, i64, i64, i64, i32, i32, i32, i8, i8 }
%struct.BlockConf = type { ptr, i32, i32, i32, i32, i32, i32, i32, i32, i32, i32, i32, i32, i32, i32, i8, i32, i32, i32, i32 }
%union.anon.9 = type { %struct.QTailQLink }
%struct.VirtIOSCSIEventInfo = type { i32, i32, %union.anon.16 }
%union.anon.16 = type { %struct.anon.17 }
%struct.anon.17 = type { i32, i32 }

@.str.3 = private unnamed_addr constant [14 x i8] c"virtio-device\00", align 1
@.str.4 = private unnamed_addr constant [105 x i8] c"/home/dtcxzyw/WorkSpace/Projects/compilers/llvm-opt-benchmark/bench/qemu/qemu/include/hw/virtio/virtio.h\00", align 1
@__func__.VIRTIO_DEVICE = private unnamed_addr constant [14 x i8] c"VIRTIO_DEVICE\00", align 1
@.str.6 = private unnamed_addr constant [110 x i8] c"/home/dtcxzyw/WorkSpace/Projects/compilers/llvm-opt-benchmark/bench/qemu/qemu/include/hw/virtio/virtio-scsi.h\00", align 1
@.str.9 = private unnamed_addr constant [19 x i8] c"virtio-scsi-device\00", align 1
@__func__.VIRTIO_SCSI = private unnamed_addr constant [12 x i8] c"VIRTIO_SCSI\00", align 1
@.str.25 = private unnamed_addr constant [10 x i8] c"fbit < 64\00", align 1
@__PRETTY_FUNCTION__.virtio_has_feature = private unnamed_addr constant [49 x i8] c"_Bool virtio_has_feature(uint64_t, unsigned int)\00", align 1
@.str.34 = private unnamed_addr constant [12 x i8] c"scsi-device\00", align 1
@.str.35 = private unnamed_addr constant [101 x i8] c"/home/dtcxzyw/WorkSpace/Projects/compilers/llvm-opt-benchmark/bench/qemu/qemu/include/hw/scsi/scsi.h\00", align 1
@__func__.SCSI_DEVICE = private unnamed_addr constant [12 x i8] c"SCSI_DEVICE\00", align 1
@sense_code_REPORTED_LUNS_CHANGED = external constant %struct.SCSISense, align 1

; Function Attrs: nounwind sspstrong uwtable
define internal zeroext i1 @virtio_has_feature(i64 noundef %features, i32 noundef %fbit) #0 {
entry:
  %features.addr = alloca i64, align 8
  %fbit.addr = alloca i32, align 4
  store i64 %features, ptr %features.addr, align 8
  store i32 %fbit, ptr %fbit.addr, align 4
  %0 = load i32, ptr %fbit.addr, align 4
  %cmp = icmp ult i32 %0, 64
  br i1 %cmp, label %if.then, label %if.else

if.then:                                          ; preds = %entry
  br label %if.end

if.else:                                          ; preds = %entry
  call void @__assert_fail(ptr noundef @.str.25, ptr noundef @.str.4, i32 noundef 422, ptr noundef @__PRETTY_FUNCTION__.virtio_has_feature) #11
  unreachable

if.end:                                           ; preds = %if.then
  %1 = load i64, ptr %features.addr, align 8
  %2 = load i32, ptr %fbit.addr, align 4
  %sh_prom = zext i32 %2 to i64
  %shl = shl i64 1, %sh_prom
  %and = and i64 %1, %shl
  %tobool = icmp ne i64 %and, 0
  %lnot = xor i1 %tobool, true
  %lnot1 = xor i1 %lnot, true
  ret i1 %lnot1
}

; Function Attrs: nounwind sspstrong uwtable
define internal zeroext i1 @virtio_vdev_has_feature(ptr noundef %vdev, i32 noundef %fbit) #0 {
entry:
  %vdev.addr = alloca ptr, align 8
  %fbit.addr = alloca i32, align 4
  store ptr %vdev, ptr %vdev.addr, align 8
  store i32 %fbit, ptr %fbit.addr, align 4
  %0 = load ptr, ptr %vdev.addr, align 8
  %guest_features = getelementptr inbounds %struct.VirtIODevice, ptr %0, i32 0, i32 6
  %1 = load i64, ptr %guest_features, align 8
  %2 = load i32, ptr %fbit.addr, align 4
  %call = call zeroext i1 @virtio_has_feature(i64 noundef %1, i32 noundef %2)
  ret i1 %call
}

; Function Attrs: nounwind sspstrong uwtable
define internal void @virtio_scsi_release(ptr noundef %s) #0 {
entry:
  %s.addr = alloca ptr, align 8
  store ptr %s, ptr %s.addr, align 8
  %0 = load ptr, ptr %s.addr, align 8
  %ctx = getelementptr inbounds %struct.VirtIOSCSI, ptr %0, i32 0, i32 6
  %1 = load ptr, ptr %ctx, align 8
  %tobool = icmp ne ptr %1, null
  br i1 %tobool, label %if.then, label %if.end

if.then:                                          ; preds = %entry
  %2 = load ptr, ptr %s.addr, align 8
  %ctx1 = getelementptr inbounds %struct.VirtIOSCSI, ptr %2, i32 0, i32 6
  %3 = load ptr, ptr %ctx1, align 8
  call void @aio_context_release(ptr noundef %3)
  br label %if.end

if.end:                                           ; preds = %if.then, %entry
  ret void
}

; Function Attrs: nounwind sspstrong uwtable
define internal void @virtio_scsi_acquire(ptr noundef %s) #0 {
entry:
  %s.addr = alloca ptr, align 8
  store ptr %s, ptr %s.addr, align 8
  %0 = load ptr, ptr %s.addr, align 8
  %ctx = getelementptr inbounds %struct.VirtIOSCSI, ptr %0, i32 0, i32 6
  %1 = load ptr, ptr %ctx, align 8
  %tobool = icmp ne ptr %1, null
  br i1 %tobool, label %if.then, label %if.end

if.then:                                          ; preds = %entry
  %2 = load ptr, ptr %s.addr, align 8
  %ctx1 = getelementptr inbounds %struct.VirtIOSCSI, ptr %2, i32 0, i32 6
  %3 = load ptr, ptr %ctx1, align 8
  call void @aio_context_acquire(ptr noundef %3)
  br label %if.end

if.end:                                           ; preds = %if.then, %entry
  ret void
}

; Function Attrs: nounwind sspstrong uwtable
define internal ptr @SCSI_DEVICE(ptr noundef %obj) #0 {
entry:
  %obj.addr = alloca ptr, align 8
  store ptr %obj, ptr %obj.addr, align 8
  %0 = load ptr, ptr %obj.addr, align 8
  %call = call ptr @object_dynamic_cast_assert(ptr noundef %0, ptr noundef @.str.34, ptr noundef @.str.35, i32 noundef 55, ptr noundef @__func__.SCSI_DEVICE)
  ret ptr %call
}

; Function Attrs: nounwind sspstrong uwtable
define internal ptr @VIRTIO_SCSI(ptr noundef %obj) #0 {
entry:
  %obj.addr = alloca ptr, align 8
  store ptr %obj, ptr %obj.addr, align 8
  %0 = load ptr, ptr %obj.addr, align 8
  %call = call ptr @object_dynamic_cast_assert(ptr noundef %0, ptr noundef @.str.9, ptr noundef @.str.6, i32 noundef 31, ptr noundef @__func__.VIRTIO_SCSI)
  ret ptr %call
}

; Function Attrs: nounwind sspstrong uwtable
define internal ptr @VIRTIO_DEVICE(ptr noundef %obj) #0 {
entry:
  %obj.addr = alloca ptr, align 8
  store ptr %obj, ptr %obj.addr, align 8
  %0 = load ptr, ptr %obj.addr, align 8
  %call = call ptr @object_dynamic_cast_assert(ptr noundef %0, ptr noundef @.str.3, ptr noundef @.str.4, i32 noundef 85, ptr noundef @__func__.VIRTIO_DEVICE)
  ret ptr %call
}

; Function Attrs: nounwind sspstrong uwtable
define internal void @virtio_scsi_hotunplug(ptr noundef %hotplug_dev, ptr noundef %dev, ptr noundef %errp) #0 {
entry:
  %hotplug_dev.addr = alloca ptr, align 8
  %dev.addr = alloca ptr, align 8
  %errp.addr = alloca ptr, align 8
  %vdev = alloca ptr, align 8
  %s = alloca ptr, align 8
  %sd = alloca ptr, align 8
  %info = alloca %struct.VirtIOSCSIEventInfo, align 4
  %sense_code_REPORTED_LUNS_CHANGED.coerce = alloca i24, align 4
  store ptr %hotplug_dev, ptr %hotplug_dev.addr, align 8
  store ptr %dev, ptr %dev.addr, align 8
  store ptr %errp, ptr %errp.addr, align 8
  %0 = load ptr, ptr %hotplug_dev.addr, align 8
  %call = call ptr @VIRTIO_DEVICE(ptr noundef %0)
  store ptr %call, ptr %vdev, align 8
  %1 = load ptr, ptr %vdev, align 8
  %call1 = call ptr @VIRTIO_SCSI(ptr noundef %1)
  store ptr %call1, ptr %s, align 8
  %2 = load ptr, ptr %dev.addr, align 8
  %call2 = call ptr @SCSI_DEVICE(ptr noundef %2)
  store ptr %call2, ptr %sd, align 8
  %event = getelementptr inbounds %struct.VirtIOSCSIEventInfo, ptr %info, i32 0, i32 0
  store i32 1, ptr %event, align 4
  %reason = getelementptr inbounds %struct.VirtIOSCSIEventInfo, ptr %info, i32 0, i32 1
  store i32 2, ptr %reason, align 4
  %3 = getelementptr inbounds %struct.VirtIOSCSIEventInfo, ptr %info, i32 0, i32 2
  %id = getelementptr inbounds %struct.anon.17, ptr %3, i32 0, i32 0
  %4 = load ptr, ptr %sd, align 8
  %id3 = getelementptr inbounds %struct.SCSIDevice, ptr %4, i32 0, i32 3
  %5 = load i32, ptr %id3, align 8
  store i32 %5, ptr %id, align 4
  %lun = getelementptr inbounds %struct.anon.17, ptr %3, i32 0, i32 1
  %6 = load ptr, ptr %sd, align 8
  %lun4 = getelementptr inbounds %struct.SCSIDevice, ptr %6, i32 0, i32 11
  %7 = load i32, ptr %lun4, align 4
  store i32 %7, ptr %lun, align 4
  %8 = load ptr, ptr %hotplug_dev.addr, align 8
  %9 = load ptr, ptr %dev.addr, align 8
  %10 = load ptr, ptr %errp.addr, align 8
  call void @qdev_simple_device_unplug_cb(ptr noundef %8, ptr noundef %9, ptr noundef %10)
  %11 = load ptr, ptr %s, align 8
  %ctx = getelementptr inbounds %struct.VirtIOSCSI, ptr %11, i32 0, i32 6
  %12 = load ptr, ptr %ctx, align 8
  %tobool = icmp ne ptr %12, null
  br i1 %tobool, label %if.then, label %if.end

if.then:                                          ; preds = %entry
  %13 = load ptr, ptr %s, align 8
  call void @virtio_scsi_acquire(ptr noundef %13)
  %14 = load ptr, ptr %sd, align 8
  %conf = getelementptr inbounds %struct.SCSIDevice, ptr %14, i32 0, i32 4
  %blk = getelementptr inbounds %struct.BlockConf, ptr %conf, i32 0, i32 0
  %15 = load ptr, ptr %blk, align 8
  %call5 = call ptr @qemu_get_aio_context()
  %call6 = call i32 @blk_set_aio_context(ptr noundef %15, ptr noundef %call5, ptr noundef null)
  %16 = load ptr, ptr %s, align 8
  call void @virtio_scsi_release(ptr noundef %16)
  br label %if.end

if.end:                                           ; preds = %if.then, %entry
  %17 = load ptr, ptr %vdev, align 8
  %call7 = call zeroext i1 @virtio_vdev_has_feature(ptr noundef %17, i32 noundef 1)
  br i1 %call7, label %if.then8, label %if.end9

if.then8:                                         ; preds = %if.end
  %18 = load ptr, ptr %s, align 8
  call void @virtio_scsi_acquire(ptr noundef %18)
  %19 = load ptr, ptr %s, align 8
  call void @virtio_scsi_push_event(ptr noundef %19, ptr noundef %info)
  %20 = load ptr, ptr %s, align 8
  %bus = getelementptr inbounds %struct.VirtIOSCSI, ptr %20, i32 0, i32 1
  call void @llvm.memcpy.p0.p0.i64(ptr align 4 %sense_code_REPORTED_LUNS_CHANGED.coerce, ptr align 1 @sense_code_REPORTED_LUNS_CHANGED, i64 3, i1 false)
  %21 = load i24, ptr %sense_code_REPORTED_LUNS_CHANGED.coerce, align 4
  call void @scsi_bus_set_ua(ptr noundef %bus, i24 %21)
  %22 = load ptr, ptr %s, align 8
  call void @virtio_scsi_release(ptr noundef %22)
  br label %if.end9

if.end9:                                          ; preds = %if.then8, %if.end
  ret void
}