; Function Attrs: nounwind sspstrong uwtable
define internal void @virtio_scsi_hotunplug(ptr noundef %hotplug_dev, ptr noundef %dev, ptr noundef %errp) #0 {
entry:
  %info = alloca %struct.VirtIOSCSIEventInfo, align 4
  %call.i = tail call ptr @object_dynamic_cast_assert(ptr noundef %hotplug_dev, ptr noundef nonnull @.str.3, ptr noundef nonnull @.str.4, i32 noundef 85, ptr noundef nonnull @__func__.VIRTIO_DEVICE) #13
  %call.i15 = tail call ptr @object_dynamic_cast_assert(ptr noundef %call.i, ptr noundef nonnull @.str.9, ptr noundef nonnull @.str.6, i32 noundef 31, ptr noundef nonnull @__func__.VIRTIO_SCSI) #13
  %call.i16 = tail call ptr @object_dynamic_cast_assert(ptr noundef %dev, ptr noundef nonnull @.str.34, ptr noundef nonnull @.str.35, i32 noundef 55, ptr noundef nonnull @__func__.SCSI_DEVICE) #13
  store i32 1, ptr %info, align 4
  %reason = getelementptr inbounds nuw i8, ptr %info, i64 4
  store i32 2, ptr %reason, align 4
  %0 = getelementptr inbounds nuw i8, ptr %info, i64 8
  %id3 = getelementptr inbounds nuw i8, ptr %call.i16, i64 176
  %1 = load i32, ptr %id3, align 8
  store i32 %1, ptr %0, align 4
  %lun = getelementptr inbounds nuw i8, ptr %info, i64 12
  %lun4 = getelementptr inbounds nuw i8, ptr %call.i16, i64 556
  %2 = load i32, ptr %lun4, align 4
  store i32 %2, ptr %lun, align 4
  tail call void @qdev_simple_device_unplug_cb(ptr noundef %hotplug_dev, ptr noundef %dev, ptr noundef %errp) #13
  %ctx = getelementptr inbounds nuw i8, ptr %call.i15, i64 840
  %3 = load ptr, ptr %ctx, align 8
  %tobool.not = icmp eq ptr %3, null
  br i1 %tobool.not, label %if.end, label %virtio_scsi_acquire.exit

virtio_scsi_acquire.exit:                         ; preds = %entry
  tail call void @aio_context_acquire(ptr noundef nonnull %3) #13
  %conf = getelementptr inbounds nuw i8, ptr %call.i16, i64 184
  %4 = load ptr, ptr %conf, align 8
  %call5 = tail call ptr @qemu_get_aio_context() #13
  %call6 = tail call i32 @blk_set_aio_context(ptr noundef %4, ptr noundef %call5, ptr noundef null) #13
  %call1.val13 = load ptr, ptr %ctx, align 8
  %tobool.not.i17 = icmp eq ptr %call1.val13, null
  br i1 %tobool.not.i17, label %if.end, label %if.then.i18

if.then.i18:                                      ; preds = %virtio_scsi_acquire.exit
  tail call void @aio_context_release(ptr noundef nonnull %call1.val13) #13
  br label %if.end

if.end:                                           ; preds = %if.then.i18, %virtio_scsi_acquire.exit, %entry
  %5 = getelementptr i8, ptr %call.i, i64 184
  %call.val = load i64, ptr %5, align 8
  %and.i.i = and i64 %call.val, 2
  %tobool.i.i.not = icmp eq i64 %and.i.i, 0
  br i1 %tobool.i.i.not, label %if.end9, label %if.then8

if.then8:                                         ; preds = %if.end
  %call1.val12 = load ptr, ptr %ctx, align 8
  %tobool.not.i19 = icmp eq ptr %call1.val12, null
  br i1 %tobool.not.i19, label %virtio_scsi_acquire.exit21, label %if.then.i20

if.then.i20:                                      ; preds = %if.then8
  tail call void @aio_context_acquire(ptr noundef nonnull %call1.val12) #13
  br label %virtio_scsi_acquire.exit21

virtio_scsi_acquire.exit21:                       ; preds = %if.then8, %if.then.i20
  call fastcc void @virtio_scsi_push_event(ptr noundef nonnull %call.i15, ptr noundef %info)
  %bus = getelementptr inbounds nuw i8, ptr %call.i15, i64 664
  %sense_code_REPORTED_LUNS_CHANGED.coerce.0.copyload = load i24, ptr @sense_code_REPORTED_LUNS_CHANGED, align 1
  tail call void @scsi_bus_set_ua(ptr noundef nonnull %bus, i24 %sense_code_REPORTED_LUNS_CHANGED.coerce.0.copyload) #13
  %call1.val14 = load ptr, ptr %ctx, align 8
  %tobool.not.i22 = icmp eq ptr %call1.val14, null
  br i1 %tobool.not.i22, label %if.end9, label %if.then.i23

if.then.i23:                                      ; preds = %virtio_scsi_acquire.exit21
  tail call void @aio_context_release(ptr noundef nonnull %call1.val14) #13
  br label %if.end9

if.end9:                                          ; preds = %if.then.i23, %virtio_scsi_acquire.exit21, %if.end
  ret void
}